target datalayout = "e-m:e-p270:32:32-p271:32:32-p272:64:64-i64:64-i128:128-f80:128-n8:16:32:64-S128"
target triple = "x86_64-pc-linux-gnu"

; Function Attrs: nounwind uwtable
define dso_local i32 @has_suffix(ptr noundef %0, ptr noundef %1) #0 {
  %3 = alloca ptr, align 8
  %4 = alloca ptr, align 8
  %5 = alloca i64, align 8
  %6 = alloca i64, align 8
  store ptr %0, ptr %3, align 8
  store ptr %1, ptr %4, align 8
  %7 = load ptr, ptr %3, align 8
  %8 = call i64 @strlen(ptr noundef %7) #7
  store i64 %8, ptr %5, align 8
  %9 = load ptr, ptr %4, align 8
  %10 = call i64 @strlen(ptr noundef %9) #7
  store i64 %10, ptr %6, align 8
  %11 = load i64, ptr %5, align 8
  %12 = load i64, ptr %6, align 8
  %13 = icmp uge i64 %11, %12
  br i1 %13, label %14, label %26

14:                                               ; preds = %2
  %15 = load ptr, ptr %3, align 8
  %16 = load i64, ptr %5, align 8
  %17 = getelementptr i8, ptr %15, i64 %16
  %18 = load i64, ptr %6, align 8
  %19 = sub i64 0, %18
  %20 = getelementptr i8, ptr %17, i64 %19
  %21 = load ptr, ptr %4, align 8
  %22 = load i64, ptr %6, align 8
  %23 = call i32 @memcmp(ptr noundef %20, ptr noundef %21, i64 noundef %22) #7
  %24 = icmp ne i32 %23, 0
  %25 = xor i1 %24, true
  br label %26

26:                                               ; preds = %14, %2
  %27 = phi i1 [ false, %2 ], [ %25, %14 ]
  %28 = zext i1 %27 to i32
  ret i32 %28
}