; Function Attrs: mustprogress nofree nounwind willreturn memory(argmem: read) uwtable
define dso_local i32 @has_suffix(ptr nocapture noundef readonly %0, ptr nocapture noundef readonly %1) local_unnamed_addr #4 {
  %3 = tail call i64 @strlen(ptr noundef nonnull dereferenceable(1) %0) #17
  %4 = tail call i64 @strlen(ptr noundef nonnull dereferenceable(1) %1) #17
  %.not = icmp ult i64 %3, %4
  br i1 %.not, label %10, label %5

5:                                                ; preds = %2
  %6 = getelementptr i8, ptr %0, i64 %3
  %7 = sub i64 0, %4
  %8 = getelementptr i8, ptr %6, i64 %7
  %bcmp = tail call i32 @bcmp(ptr %8, ptr %1, i64 %4)
  %.not9 = icmp eq i32 %bcmp, 0
  %9 = zext i1 %.not9 to i32
  br label %10

10:                                               ; preds = %5, %2
  %11 = phi i32 [ 0, %2 ], [ %9, %5 ]
  ret i32 %11
}